target datalayout = "e-m:e-p270:32:32-p271:32:32-p272:64:64-i64:64-i128:128-f80:128-n8:16:32:64-S128"
target triple = "x86_64-pc-linux-gnu"

%struct._GMarkupParser = type { ptr, ptr, ptr, ptr, ptr }
%struct.darktable_t = type { %struct.dt_codepath_t, i32, i32, ptr, ptr, ptr, ptr, ptr, ptr, ptr, ptr, ptr, ptr, ptr, ptr, ptr, ptr, ptr, ptr, ptr, ptr, ptr, ptr, ptr, ptr, ptr, ptr, ptr, ptr, ptr, [64 x %struct.dt_pthread_mutex_t], %struct.dt_pthread_mutex_t, %struct.dt_pthread_mutex_t, %struct.dt_pthread_mutex_t, %struct.dt_pthread_mutex_t, %struct.dt_pthread_mutex_t, ptr, ptr, ptr, ptr, ptr, ptr, ptr, ptr, ptr, ptr, ptr, ptr, ptr, %struct.dt_lua_state_t, ptr, double, ptr, i32, [47 x i32], i32, i32, ptr, ptr, %struct.dt_sys_resources_t, %struct.dt_backthumb_t, %struct.dt_gimp_t }
%struct.dt_codepath_t = type { i8, [3 x i8] }
%struct.dt_pthread_mutex_t = type { %union.pthread_mutex_t }
%union.pthread_mutex_t = type { %struct.__pthread_mutex_s }
%struct.__pthread_mutex_s = type { i32, i32, i32, i32, i32, i16, i16, %struct.__pthread_internal_list }
%struct.__pthread_internal_list = type { ptr, ptr }
%struct.dt_lua_state_t = type { i32 }
%struct.dt_sys_resources_t = type { i64, i64, ptr, ptr, i32 }
%struct.dt_backthumb_t = type { double, double, i32, i32, i32, i32 }
%struct.dt_gimp_t = type { i32, ptr, ptr, i32, i32 }
%struct.dt_gpx_t = type { ptr, ptr, ptr, i32, i32, i32, i32, ptr }
%struct._GError = type { i32, i32, ptr }

@_gpx_parser = internal global %struct._GMarkupParser { ptr @_gpx_parser_start_element, ptr @_gpx_parser_end_element, ptr @_gpx_parser_text, ptr null, ptr null }, align 8
@darktable = external global %struct.darktable_t, align 8
@.str = private unnamed_addr constant [15 x i8] c"dt_gpx_new: %s\00", align 1
@.str.1 = private unnamed_addr constant [3 x i8] c"%s\00", align 1

; Function Attrs: nounwind uwtable
define ptr @dt_gpx_new(ptr noundef %0) #0 {
  %2 = alloca ptr, align 8
  %3 = alloca ptr, align 8
  %4 = alloca ptr, align 8
  %5 = alloca i32, align 4
  %6 = alloca ptr, align 8
  %7 = alloca ptr, align 8
  %8 = alloca ptr, align 8
  %9 = alloca ptr, align 8
  %10 = alloca i32, align 4
  %11 = alloca i32, align 4
  store ptr %0, ptr %3, align 8, !tbaa !6
  call void @llvm.lifetime.start.p0(i64 8, ptr %4) #10
  store ptr null, ptr %4, align 8, !tbaa !11
  call void @llvm.lifetime.start.p0(i64 4, ptr %5) #10
  store i32 0, ptr %5, align 4, !tbaa !13
  call void @llvm.lifetime.start.p0(i64 8, ptr %6) #10
  store ptr null, ptr %6, align 8, !tbaa !15
  call void @llvm.lifetime.start.p0(i64 8, ptr %7) #10
  store ptr null, ptr %7, align 8, !tbaa !17
  call void @llvm.lifetime.start.p0(i64 8, ptr %8) #10
  %12 = load ptr, ptr %3, align 8, !tbaa !6
  %13 = call ptr @g_mapped_file_new(ptr noundef %12, i32 noundef 0, ptr noundef %4)
  store ptr %13, ptr %8, align 8, !tbaa !19
  %14 = load ptr, ptr %4, align 8, !tbaa !11
  %15 = icmp ne ptr %14, null
  br i1 %15, label %16, label %17

16:                                               ; preds = %1
  br label %81

17:                                               ; preds = %1
  %18 = load ptr, ptr %8, align 8, !tbaa !19
  %19 = call ptr @g_mapped_file_get_contents(ptr noundef %18)
  store ptr %19, ptr %9, align 8, !tbaa !6
  %20 = load ptr, ptr %8, align 8, !tbaa !19
  %21 = call i64 @g_mapped_file_get_length(ptr noundef %20)
  %22 = trunc i64 %21 to i32
  store i32 %22, ptr %10, align 4, !tbaa !13
  %23 = load ptr, ptr %9, align 8, !tbaa !6
  %24 = icmp ne ptr %23, null
  br i1 %24, label %25, label %28

25:                                               ; preds = %17
  %26 = load i32, ptr %10, align 4, !tbaa !13
  %27 = icmp slt i32 %26, 10
  br i1 %27, label %28, label %29

28:                                               ; preds = %25, %17
  br label %81

29:                                               ; preds = %25
  %30 = call noalias ptr @g_malloc0(i64 noundef 48) #11
  store ptr %30, ptr %7, align 8, !tbaa !17
  %31 = load ptr, ptr %9, align 8, !tbaa !6
  %32 = getelementptr inbounds i8, ptr %31, i64 0
  %33 = load i8, ptr %32, align 1, !tbaa !21
  %34 = sext i8 %33 to i32
  %35 = icmp eq i32 %34, -17
  br i1 %35, label %36, label %49

36:                                               ; preds = %29
  %37 = load ptr, ptr %9, align 8, !tbaa !6
  %38 = getelementptr inbounds i8, ptr %37, i64 1
  %39 = load i8, ptr %38, align 1, !tbaa !21
  %40 = sext i8 %39 to i32
  %41 = icmp eq i32 %40, -69
  br i1 %41, label %42, label %49

42:                                               ; preds = %36
  %43 = load ptr, ptr %9, align 8, !tbaa !6
  %44 = getelementptr inbounds i8, ptr %43, i64 2
  %45 = load i8, ptr %44, align 1, !tbaa !21
  %46 = sext i8 %45 to i32
  %47 = icmp eq i32 %46, -65
  br i1 %47, label %48, label %49

48:                                               ; preds = %42
  store i32 3, ptr %5, align 4, !tbaa !13
  br label %49

49:                                               ; preds = %48, %42, %36, %29
  %50 = load ptr, ptr %7, align 8, !tbaa !17
  %51 = call ptr @g_markup_parse_context_new(ptr noundef @_gpx_parser, i32 noundef 0, ptr noundef %50, ptr noundef null)
  store ptr %51, ptr %6, align 8, !tbaa !15
  %52 = load ptr, ptr %6, align 8, !tbaa !15
  %53 = load ptr, ptr %9, align 8, !tbaa !6
  %54 = load i32, ptr %5, align 4, !tbaa !13
  %55 = sext i32 %54 to i64
  %56 = getelementptr inbounds i8, ptr %53, i64 %55
  %57 = load i32, ptr %10, align 4, !tbaa !13
  %58 = load i32, ptr %5, align 4, !tbaa !13
  %59 = sub nsw i32 %57, %58
  %60 = sext i32 %59 to i64
  %61 = call i32 @g_markup_parse_context_parse(ptr noundef %52, ptr noundef %56, i64 noundef %60, ptr noundef %4)
  %62 = load ptr, ptr %4, align 8, !tbaa !11
  %63 = icmp ne ptr %62, null
  br i1 %63, label %64, label %65

64:                                               ; preds = %49
  br label %81

65:                                               ; preds = %49
  %66 = load ptr, ptr %6, align 8, !tbaa !15
  call void @g_markup_parse_context_free(ptr noundef %66)
  %67 = load ptr, ptr %8, align 8, !tbaa !19
  call void @g_mapped_file_unref(ptr noundef %67)
  %68 = load ptr, ptr %7, align 8, !tbaa !17
  %69 = getelementptr inbounds nuw %struct.dt_gpx_t, ptr %68, i32 0, i32 0
  %70 = load ptr, ptr %69, align 8, !tbaa !22
  %71 = call ptr @g_list_sort(ptr noundef %70, ptr noundef @_sort_track)
  %72 = load ptr, ptr %7, align 8, !tbaa !17
  %73 = getelementptr inbounds nuw %struct.dt_gpx_t, ptr %72, i32 0, i32 0
  store ptr %71, ptr %73, align 8, !tbaa !22
  %74 = load ptr, ptr %7, align 8, !tbaa !17
  %75 = getelementptr inbounds nuw %struct.dt_gpx_t, ptr %74, i32 0, i32 1
  %76 = load ptr, ptr %75, align 8, !tbaa !26
  %77 = call ptr @g_list_sort(ptr noundef %76, ptr noundef @_sort_segment)
  %78 = load ptr, ptr %7, align 8, !tbaa !17
  %79 = getelementptr inbounds nuw %struct.dt_gpx_t, ptr %78, i32 0, i32 1
  store ptr %77, ptr %79, align 8, !tbaa !26
  %80 = load ptr, ptr %7, align 8, !tbaa !17
  store ptr %80, ptr %2, align 8
  store i32 1, ptr %11, align 4
  br label %113

81:                                               ; preds = %64, %28, %16
  %82 = load ptr, ptr %4, align 8, !tbaa !11
  %83 = icmp ne ptr %82, null
  br i1 %83, label %84, label %101

84:                                               ; preds = %81
  br label %85

85:                                               ; preds = %84
  %86 = load i32, ptr getelementptr inbounds nuw (%struct.darktable_t, ptr @darktable, i32 0, i32 2), align 8, !tbaa !27
  %87 = xor i32 %86, -1
  %88 = and i32 0, %87
  %89 = icmp ne i32 %88, 0
  br i1 %89, label %94, label %90

90:                                               ; preds = %85
  %91 = load ptr, ptr %4, align 8, !tbaa !11
  %92 = getelementptr inbounds nuw %struct._GError, ptr %91, i32 0, i32 2
  %93 = load ptr, ptr %92, align 8, !tbaa !63
  call void (ptr, ...) @dt_print_ext(ptr noundef @.str, ptr noundef %93)
  br label %94

94:                                               ; preds = %90, %85
  br label %95

95:                                               ; preds = %94
  br label %96

96:                                               ; preds = %95
  %97 = load ptr, ptr %4, align 8, !tbaa !11
  %98 = getelementptr inbounds nuw %struct._GError, ptr %97, i32 0, i32 2
  %99 = load ptr, ptr %98, align 8, !tbaa !63
  call void (ptr, ...) @dt_control_log(ptr noundef @.str.1, ptr noundef %99)
  %100 = load ptr, ptr %4, align 8, !tbaa !11
  call void @g_error_free(ptr noundef %100)
  br label %101

101:                                              ; preds = %96, %81
  %102 = load ptr, ptr %6, align 8, !tbaa !15
  %103 = icmp ne ptr %102, null
  br i1 %103, label %104, label %106

104:                                              ; preds = %101
  %105 = load ptr, ptr %6, align 8, !tbaa !15
  call void @g_markup_parse_context_free(ptr noundef %105)
  br label %106

106:                                              ; preds = %104, %101
  %107 = load ptr, ptr %7, align 8, !tbaa !17
  call void @g_free(ptr noundef %107)
  %108 = load ptr, ptr %8, align 8, !tbaa !19
  %109 = icmp ne ptr %108, null
  br i1 %109, label %110, label %112

110:                                              ; preds = %106
  %111 = load ptr, ptr %8, align 8, !tbaa !19
  call void @g_mapped_file_unref(ptr noundef %111)
  br label %112

112:                                              ; preds = %110, %106
  store ptr null, ptr %2, align 8
  store i32 1, ptr %11, align 4
  br label %113

113:                                              ; preds = %112, %65
  call void @llvm.lifetime.end.p0(i64 8, ptr %8) #10
  call void @llvm.lifetime.end.p0(i64 8, ptr %7) #10
  call void @llvm.lifetime.end.p0(i64 8, ptr %6) #10
  call void @llvm.lifetime.end.p0(i64 4, ptr %5) #10
  call void @llvm.lifetime.end.p0(i64 8, ptr %4) #10
  %114 = load ptr, ptr %2, align 8
  ret ptr %114
}