; Function Attrs: nounwind uwtable
define noundef ptr @dt_gpx_new(ptr noundef %0) local_unnamed_addr #0 {
  %2 = alloca ptr, align 8
  call void @llvm.lifetime.start.p0(i64 8, ptr nonnull %2) #11
  store ptr null, ptr %2, align 8, !tbaa !6
  %3 = call ptr @g_mapped_file_new(ptr noundef %0, i32 noundef 0, ptr noundef nonnull %2) #11
  %4 = load ptr, ptr %2, align 8, !tbaa !6
  %.not = icmp eq ptr %4, null
  br i1 %.not, label %5, label %.thread

5:                                                ; preds = %1
  %6 = call ptr @g_mapped_file_get_contents(ptr noundef %3) #11
  %7 = call i64 @g_mapped_file_get_length(ptr noundef %3) #11
  %8 = trunc i64 %7 to i32
  %9 = icmp eq ptr %6, null
  %10 = icmp slt i32 %8, 10
  %or.cond = select i1 %9, i1 true, i1 %10
  br i1 %or.cond, label %37, label %11

11:                                               ; preds = %5
  %12 = call noalias dereferenceable_or_null(48) ptr @g_malloc0(i64 noundef 48) #12
  %13 = load i8, ptr %6, align 1, !tbaa !11
  %14 = icmp eq i8 %13, -17
  br i1 %14, label %15, label %23

15:                                               ; preds = %11
  %16 = getelementptr inbounds nuw i8, ptr %6, i64 1
  %17 = load i8, ptr %16, align 1, !tbaa !11
  %18 = icmp eq i8 %17, -69
  br i1 %18, label %19, label %23

19:                                               ; preds = %15
  %20 = getelementptr inbounds nuw i8, ptr %6, i64 2
  %21 = load i8, ptr %20, align 1, !tbaa !11
  %22 = icmp eq i8 %21, -65
  %spec.select = select i1 %22, i32 3, i32 0
  br label %23

23:                                               ; preds = %19, %15, %11
  %.027 = phi i32 [ 0, %15 ], [ 0, %11 ], [ %spec.select, %19 ]
  %24 = call ptr @g_markup_parse_context_new(ptr noundef nonnull @_gpx_parser, i32 noundef 0, ptr noundef %12, ptr noundef null) #11
  %25 = zext nneg i32 %.027 to i64
  %26 = getelementptr inbounds nuw i8, ptr %6, i64 %25
  %27 = sub nuw nsw i32 %8, %.027
  %28 = zext nneg i32 %27 to i64
  %29 = call i32 @g_markup_parse_context_parse(ptr noundef %24, ptr noundef nonnull %26, i64 noundef %28, ptr noundef nonnull %2) #11
  %30 = load ptr, ptr %2, align 8, !tbaa !6
  %.not34 = icmp eq ptr %30, null
  br i1 %.not34, label %31, label %.thread

31:                                               ; preds = %23
  call void @g_markup_parse_context_free(ptr noundef %24) #11
  call void @g_mapped_file_unref(ptr noundef %3) #11
  %32 = load ptr, ptr %12, align 8, !tbaa !12
  %33 = call ptr @g_list_sort(ptr noundef %32, ptr noundef nonnull @_sort_track) #11
  store ptr %33, ptr %12, align 8, !tbaa !12
  %34 = getelementptr inbounds nuw i8, ptr %12, i64 8
  %35 = load ptr, ptr %34, align 8, !tbaa !18
  %36 = call ptr @g_list_sort(ptr noundef %35, ptr noundef nonnull @_sort_segment) #11
  store ptr %36, ptr %34, align 8, !tbaa !18
  br label %47

37:                                               ; preds = %5
  %.pr = load ptr, ptr %2, align 8, !tbaa !6
  %.not35 = icmp eq ptr %.pr, null
  br i1 %.not35, label %.thread45, label %.thread

.thread:                                          ; preds = %1, %23, %37
  %.02843 = phi ptr [ null, %37 ], [ %24, %23 ], [ null, %1 ]
  %.02941 = phi ptr [ null, %37 ], [ %12, %23 ], [ null, %1 ]
  %38 = phi ptr [ %.pr, %37 ], [ %30, %23 ], [ %4, %1 ]
  %39 = getelementptr inbounds nuw i8, ptr %38, i64 8
  %40 = load ptr, ptr %39, align 8, !tbaa !19
  call void (ptr, ...) @dt_print_ext(ptr noundef nonnull @.str, ptr noundef %40) #11
  %41 = load ptr, ptr %2, align 8, !tbaa !6
  %42 = getelementptr inbounds nuw i8, ptr %41, i64 8
  %43 = load ptr, ptr %42, align 8, !tbaa !19
  call void (ptr, ...) @dt_control_log(ptr noundef nonnull @.str.1, ptr noundef %43) #11
  %44 = load ptr, ptr %2, align 8, !tbaa !6
  call void @g_error_free(ptr noundef %44) #11
  %.not36 = icmp eq ptr %.02843, null
  br i1 %.not36, label %.thread45, label %45

45:                                               ; preds = %.thread
  call void @g_markup_parse_context_free(ptr noundef nonnull %.02843) #11
  br label %.thread45

.thread45:                                        ; preds = %37, %45, %.thread
  %.0294249 = phi ptr [ %.02941, %45 ], [ %.02941, %.thread ], [ null, %37 ]
  call void @g_free(ptr noundef %.0294249) #11
  %.not37 = icmp eq ptr %3, null
  br i1 %.not37, label %47, label %46

46:                                               ; preds = %.thread45
  call void @g_mapped_file_unref(ptr noundef nonnull %3) #11
  br label %47

47:                                               ; preds = %.thread45, %46, %31
  %.0 = phi ptr [ %12, %31 ], [ null, %46 ], [ null, %.thread45 ]
  call void @llvm.lifetime.end.p0(i64 8, ptr nonnull %2) #11
  ret ptr %.0
}